target datalayout = "e-m:e-p270:32:32-p271:32:32-p272:64:64-i64:64-i128:128-f80:128-n8:16:32:64-S128"
target triple = "x86_64-pc-linux-gnu"

%struct.write_midx_context = type { ptr, i64, i64, ptr, ptr, ptr, i32, ptr, i64, ptr, ptr, i8, i32, i32, i32, i32, ptr, ptr }
%struct.pack_midx_entry = type { %struct.object_id, i32, i64, i64, i8 }
%struct.object_id = type { [32 x i8], i32 }

@.str.16 = private unnamed_addr constant [13 x i8] c"midx-write.c\00", align 1
@.str.53 = private unnamed_addr constant [30 x i8] c"too many large-offset objects\00", align 1

; Function Attrs: inlinehint nounwind uwtable
define internal i64 @default_bswap64(i64 noundef %0) #4 {
  %2 = alloca i64, align 8
  store i64 %0, ptr %2, align 8, !tbaa !72
  %3 = load i64, ptr %2, align 8, !tbaa !72
  %4 = and i64 %3, 255
  %5 = shl i64 %4, 56
  %6 = load i64, ptr %2, align 8, !tbaa !72
  %7 = and i64 %6, 65280
  %8 = shl i64 %7, 40
  %9 = or i64 %5, %8
  %10 = load i64, ptr %2, align 8, !tbaa !72
  %11 = and i64 %10, 16711680
  %12 = shl i64 %11, 24
  %13 = or i64 %9, %12
  %14 = load i64, ptr %2, align 8, !tbaa !72
  %15 = and i64 %14, 4278190080
  %16 = shl i64 %15, 8
  %17 = or i64 %13, %16
  %18 = load i64, ptr %2, align 8, !tbaa !72
  %19 = and i64 %18, 1095216660480
  %20 = lshr i64 %19, 8
  %21 = or i64 %17, %20
  %22 = load i64, ptr %2, align 8, !tbaa !72
  %23 = and i64 %22, 280375465082880
  %24 = lshr i64 %23, 24
  %25 = or i64 %21, %24
  %26 = load i64, ptr %2, align 8, !tbaa !72
  %27 = and i64 %26, 71776119061217280
  %28 = lshr i64 %27, 40
  %29 = or i64 %25, %28
  %30 = load i64, ptr %2, align 8, !tbaa !72
  %31 = and i64 %30, -72057594037927936
  %32 = lshr i64 %31, 56
  %33 = or i64 %29, %32
  ret i64 %33
}

; Function Attrs: inlinehint nounwind uwtable
define internal i64 @git_bswap64(i64 noundef %0) #4 {
  %2 = alloca i64, align 8
  %3 = alloca i64, align 8
  store i64 %0, ptr %2, align 8, !tbaa !72
  call void @llvm.lifetime.start.p0(i64 8, ptr %3) #11
  %4 = load i64, ptr %2, align 8, !tbaa !72
  %5 = call i1 @llvm.is.constant.i64(i64 %4)
  br i1 %5, label %6, label %9

6:                                                ; preds = %1
  %7 = load i64, ptr %2, align 8, !tbaa !72
  %8 = call i64 @default_bswap64(i64 noundef %7)
  store i64 %8, ptr %3, align 8, !tbaa !72
  br label %12

9:                                                ; preds = %1
  %10 = load i64, ptr %2, align 8, !tbaa !72
  %11 = call i64 asm "bswap ${0:q}", "=r,0,~{dirflag},~{fpsr},~{flags}"(i64 %10) #15, !srcloc !208
  store i64 %11, ptr %3, align 8, !tbaa !72
  br label %12

12:                                               ; preds = %9, %6
  %13 = load i64, ptr %3, align 8, !tbaa !72
  call void @llvm.lifetime.end.p0(i64 8, ptr %3) #11
  ret i64 %13
}

; Function Attrs: inlinehint nounwind uwtable
define internal i64 @hashwrite_be64(ptr noundef %0, i64 noundef %1) #4 {
  %3 = alloca ptr, align 8
  %4 = alloca i64, align 8
  store ptr %0, ptr %3, align 8, !tbaa !15
  store i64 %1, ptr %4, align 8, !tbaa !72
  %5 = load i64, ptr %4, align 8, !tbaa !72
  %6 = call i64 @git_bswap64(i64 noundef %5)
  store i64 %6, ptr %4, align 8, !tbaa !72
  %7 = load ptr, ptr %3, align 8, !tbaa !15
  call void @hashwrite(ptr noundef %7, ptr noundef %4, i32 noundef 8)
  ret i64 8
}

; Function Attrs: nounwind uwtable
define internal i32 @write_midx_large_offsets(ptr noundef %0, ptr noundef %1) #0 {
  %3 = alloca ptr, align 8
  %4 = alloca ptr, align 8
  %5 = alloca ptr, align 8
  %6 = alloca ptr, align 8
  %7 = alloca ptr, align 8
  %8 = alloca i32, align 4
  %9 = alloca ptr, align 8
  %10 = alloca i64, align 8
  %11 = alloca i32, align 4
  store ptr %0, ptr %3, align 8, !tbaa !15
  store ptr %1, ptr %4, align 8, !tbaa !137
  call void @llvm.lifetime.start.p0(i64 8, ptr %5) #11
  %12 = load ptr, ptr %4, align 8, !tbaa !137
  store ptr %12, ptr %5, align 8, !tbaa !133
  call void @llvm.lifetime.start.p0(i64 8, ptr %6) #11
  %13 = load ptr, ptr %5, align 8, !tbaa !133
  %14 = getelementptr inbounds nuw %struct.write_midx_context, ptr %13, i32 0, i32 7
  %15 = load ptr, ptr %14, align 8, !tbaa !75
  store ptr %15, ptr %6, align 8, !tbaa !152
  call void @llvm.lifetime.start.p0(i64 8, ptr %7) #11
  %16 = load ptr, ptr %5, align 8, !tbaa !133
  %17 = getelementptr inbounds nuw %struct.write_midx_context, ptr %16, i32 0, i32 7
  %18 = load ptr, ptr %17, align 8, !tbaa !75
  %19 = load ptr, ptr %5, align 8, !tbaa !133
  %20 = getelementptr inbounds nuw %struct.write_midx_context, ptr %19, i32 0, i32 8
  %21 = load i64, ptr %20, align 8, !tbaa !74
  %22 = getelementptr inbounds nuw %struct.pack_midx_entry, ptr %18, i64 %21
  store ptr %22, ptr %7, align 8, !tbaa !152
  call void @llvm.lifetime.start.p0(i64 4, ptr %8) #11
  %23 = load ptr, ptr %5, align 8, !tbaa !133
  %24 = getelementptr inbounds nuw %struct.write_midx_context, ptr %23, i32 0, i32 12
  %25 = load i32, ptr %24, align 4, !tbaa !79
  store i32 %25, ptr %8, align 4, !tbaa !11
  br label %26

26:                                               ; preds = %52, %50, %2
  %27 = load i32, ptr %8, align 4, !tbaa !11
  %28 = icmp ne i32 %27, 0
  br i1 %28, label %29, label %53

29:                                               ; preds = %26
  call void @llvm.lifetime.start.p0(i64 8, ptr %9) #11
  call void @llvm.lifetime.start.p0(i64 8, ptr %10) #11
  %30 = load ptr, ptr %6, align 8, !tbaa !152
  %31 = load ptr, ptr %7, align 8, !tbaa !152
  %32 = icmp uge ptr %30, %31
  br i1 %32, label %33, label %34

33:                                               ; preds = %29
  call void (ptr, i32, ptr, ...) @BUG_fl(ptr noundef @.str.16, i32 noundef 549, ptr noundef @.str.53) #12
  unreachable

34:                                               ; preds = %29
  %35 = load ptr, ptr %6, align 8, !tbaa !152
  %36 = getelementptr inbounds nuw %struct.pack_midx_entry, ptr %35, i32 1
  store ptr %36, ptr %6, align 8, !tbaa !152
  store ptr %35, ptr %9, align 8, !tbaa !152
  %37 = load ptr, ptr %9, align 8, !tbaa !152
  %38 = getelementptr inbounds nuw %struct.pack_midx_entry, ptr %37, i32 0, i32 3
  %39 = load i64, ptr %38, align 8, !tbaa !76
  store i64 %39, ptr %10, align 8, !tbaa !72
  %40 = load i64, ptr %10, align 8, !tbaa !72
  %41 = lshr i64 %40, 31
  %42 = icmp ne i64 %41, 0
  br i1 %42, label %44, label %43

43:                                               ; preds = %34
  store i32 2, ptr %11, align 4
  br label %50, !llvm.loop !158

44:                                               ; preds = %34
  %45 = load ptr, ptr %3, align 8, !tbaa !15
  %46 = load i64, ptr %10, align 8, !tbaa !72
  %47 = call i64 @hashwrite_be64(ptr noundef %45, i64 noundef %46)
  %48 = load i32, ptr %8, align 4, !tbaa !11
  %49 = add i32 %48, -1
  store i32 %49, ptr %8, align 4, !tbaa !11
  store i32 0, ptr %11, align 4
  br label %50

50:                                               ; preds = %44, %43
  call void @llvm.lifetime.end.p0(i64 8, ptr %10) #11
  call void @llvm.lifetime.end.p0(i64 8, ptr %9) #11
  %51 = load i32, ptr %11, align 4
  switch i32 %51, label %54 [
    i32 0, label %52
    i32 2, label %26
  ]

52:                                               ; preds = %50
  br label %26, !llvm.loop !158

53:                                               ; preds = %26
  store i32 1, ptr %11, align 4
  call void @llvm.lifetime.end.p0(i64 4, ptr %8) #11
  call void @llvm.lifetime.end.p0(i64 8, ptr %7) #11
  call void @llvm.lifetime.end.p0(i64 8, ptr %6) #11
  call void @llvm.lifetime.end.p0(i64 8, ptr %5) #11
  ret i32 0

54:                                               ; preds = %50
  unreachable
}