; Function Attrs: nounwind uwtable
define internal noundef i32 @write_midx_large_offsets(ptr noundef %0, ptr noundef readonly captures(none) %1) #0 {
  %3 = alloca i64, align 8
  %4 = getelementptr inbounds nuw i8, ptr %1, i64 56
  %5 = load ptr, ptr %4, align 8, !tbaa !78
  %6 = getelementptr inbounds nuw i8, ptr %1, i64 64
  %7 = load i64, ptr %6, align 8, !tbaa !79
  %8 = getelementptr inbounds nuw %struct.pack_midx_entry, ptr %5, i64 %7
  %9 = getelementptr inbounds nuw i8, ptr %1, i64 92
  %10 = load i32, ptr %9, align 4, !tbaa !90
  %.not16 = icmp eq i32 %10, 0
  br i1 %.not16, label %._crit_edge, label %.lr.ph

.lr.ph:                                           ; preds = %2, %18
  %.018 = phi ptr [ %13, %18 ], [ %5, %2 ]
  %.01317 = phi i32 [ %.1, %18 ], [ %10, %2 ]
  %.not14 = icmp ult ptr %.018, %8
  br i1 %.not14, label %12, label %11

11:                                               ; preds = %.lr.ph
  call void (ptr, i32, ptr, ...) @BUG_fl(ptr noundef nonnull @.str.16, i32 noundef 549, ptr noundef nonnull @.str.53) #20
  unreachable

12:                                               ; preds = %.lr.ph
  %13 = getelementptr inbounds nuw i8, ptr %.018, i64 64
  %14 = getelementptr inbounds nuw i8, ptr %.018, i64 48
  %15 = load i64, ptr %14, align 8, !tbaa !85
  %.not15 = icmp ult i64 %15, 2147483648
  br i1 %.not15, label %18, label %hashwrite_be64.exit, !llvm.loop !212

hashwrite_be64.exit:                              ; preds = %12
  call void @llvm.lifetime.start.p0(i64 8, ptr nonnull %3)
  %16 = call i64 asm "bswap ${0:q}", "=r,0,~{dirflag},~{fpsr},~{flags}"(i64 %15) #22, !srcloc !213
  store i64 %16, ptr %3, align 8, !tbaa !72
  call void @hashwrite(ptr noundef %0, ptr noundef nonnull %3, i32 noundef 8) #19
  call void @llvm.lifetime.end.p0(i64 8, ptr nonnull %3)
  %17 = add i32 %.01317, -1
  br label %18

18:                                               ; preds = %12, %hashwrite_be64.exit
  %.1 = phi i32 [ %17, %hashwrite_be64.exit ], [ %.01317, %12 ]
  %.not = icmp eq i32 %.1, 0
  br i1 %.not, label %._crit_edge, label %.lr.ph

._crit_edge:                                      ; preds = %18, %2
  ret i32 0
}